; Function Attrs: nounwind uwtable
define noalias nonnull ptr @l_Lean_Compiler_LCNF_Probe_head___rarg___boxed(ptr noundef %0, ptr noundef %1, ptr noundef %2, ptr noundef %3, ptr noundef %4, ptr noundef %5, ptr noundef %6) #0 {
  %8 = tail call ptr @l_Array_toSubarray___rarg(ptr noundef %1, ptr noundef nonnull inttoptr (i64 1 to ptr), ptr noundef %0) #4
  %9 = tail call ptr @l_Array_ofSubarray___rarg(ptr noundef %8) #4
  %10 = ptrtoint ptr %8 to i64
  %11 = and i64 %10, 1
  %.not.i21 = icmp eq i64 %11, 0
  br i1 %.not.i21, label %12, label %lean_dec.exit.i

12:                                               ; preds = %7
  %13 = load i32, ptr %8, align 4, !tbaa !4
  %14 = icmp sgt i32 %13, 1
  br i1 %14, label %15, label %17, !prof !9

15:                                               ; preds = %12
  %16 = add nsw i32 %13, -1
  store i32 %16, ptr %8, align 4, !tbaa !4
  br label %lean_dec.exit.i

17:                                               ; preds = %12
  %.not.i.i = icmp eq i32 %13, 0
  br i1 %.not.i.i, label %lean_dec.exit.i, label %18

18:                                               ; preds = %17
  tail call void @lean_dec_ref_cold(ptr noundef nonnull %8) #4
  br label %lean_dec.exit.i

lean_dec.exit.i:                                  ; preds = %18, %17, %15, %7
  tail call void @lean_inc_heartbeat() #4
  %19 = tail call noalias ptr @mi_malloc_small(i64 noundef 24) #4
  %20 = icmp eq ptr %19, null
  br i1 %20, label %21, label %l_Lean_Compiler_LCNF_Probe_head___rarg.exit

21:                                               ; preds = %lean_dec.exit.i
  tail call void @lean_internal_panic_out_of_memory() #5
  unreachable

l_Lean_Compiler_LCNF_Probe_head___rarg.exit:      ; preds = %lean_dec.exit.i
  %22 = getelementptr inbounds nuw i8, ptr %19, i64 4
  store i32 1, ptr %19, align 4, !tbaa !4
  store i32 131096, ptr %22, align 4
  %23 = getelementptr inbounds nuw i8, ptr %19, i64 8
  store ptr %9, ptr %23, align 8, !tbaa !10
  %24 = getelementptr inbounds nuw i8, ptr %19, i64 16
  store ptr %6, ptr %24, align 8, !tbaa !10
  %25 = ptrtoint ptr %5 to i64
  %26 = and i64 %25, 1
  %.not = icmp eq i64 %26, 0
  br i1 %.not, label %27, label %lean_dec.exit14

27:                                               ; preds = %l_Lean_Compiler_LCNF_Probe_head___rarg.exit
  %28 = load i32, ptr %5, align 4, !tbaa !4
  %29 = icmp sgt i32 %28, 1
  br i1 %29, label %30, label %32, !prof !9

30:                                               ; preds = %27
  %31 = add nsw i32 %28, -1
  store i32 %31, ptr %5, align 4, !tbaa !4
  br label %lean_dec.exit14

32:                                               ; preds = %27
  %.not.i = icmp eq i32 %28, 0
  br i1 %.not.i, label %lean_dec.exit14, label %33

33:                                               ; preds = %32
  tail call void @lean_dec_ref_cold(ptr noundef nonnull %5) #4
  br label %lean_dec.exit14

lean_dec.exit14:                                  ; preds = %33, %32, %30, %l_Lean_Compiler_LCNF_Probe_head___rarg.exit
  %34 = ptrtoint ptr %4 to i64
  %35 = and i64 %34, 1
  %.not22 = icmp eq i64 %35, 0
  br i1 %.not22, label %36, label %lean_dec.exit13

36:                                               ; preds = %lean_dec.exit14
  %37 = load i32, ptr %4, align 4, !tbaa !4
  %38 = icmp sgt i32 %37, 1
  br i1 %38, label %39, label %41, !prof !9

39:                                               ; preds = %36
  %40 = add nsw i32 %37, -1
  store i32 %40, ptr %4, align 4, !tbaa !4
  br label %lean_dec.exit13

41:                                               ; preds = %36
  %.not.i15 = icmp eq i32 %37, 0
  br i1 %.not.i15, label %lean_dec.exit13, label %42

42:                                               ; preds = %41
  tail call void @lean_dec_ref_cold(ptr noundef nonnull %4) #4
  br label %lean_dec.exit13

lean_dec.exit13:                                  ; preds = %42, %41, %39, %lean_dec.exit14
  %43 = ptrtoint ptr %3 to i64
  %44 = and i64 %43, 1
  %.not23 = icmp eq i64 %44, 0
  br i1 %.not23, label %45, label %lean_dec.exit12

45:                                               ; preds = %lean_dec.exit13
  %46 = load i32, ptr %3, align 4, !tbaa !4
  %47 = icmp sgt i32 %46, 1
  br i1 %47, label %48, label %50, !prof !9

48:                                               ; preds = %45
  %49 = add nsw i32 %46, -1
  store i32 %49, ptr %3, align 4, !tbaa !4
  br label %lean_dec.exit12

50:                                               ; preds = %45
  %.not.i17 = icmp eq i32 %46, 0
  br i1 %.not.i17, label %lean_dec.exit12, label %51

51:                                               ; preds = %50
  tail call void @lean_dec_ref_cold(ptr noundef nonnull %3) #4
  br label %lean_dec.exit12

lean_dec.exit12:                                  ; preds = %51, %50, %48, %lean_dec.exit13
  %52 = ptrtoint ptr %2 to i64
  %53 = and i64 %52, 1
  %.not24 = icmp eq i64 %53, 0
  br i1 %.not24, label %54, label %lean_dec.exit

54:                                               ; preds = %lean_dec.exit12
  %55 = load i32, ptr %2, align 4, !tbaa !4
  %56 = icmp sgt i32 %55, 1
  br i1 %56, label %57, label %59, !prof !9

57:                                               ; preds = %54
  %58 = add nsw i32 %55, -1
  store i32 %58, ptr %2, align 4, !tbaa !4
  br label %lean_dec.exit

59:                                               ; preds = %54
  %.not.i19 = icmp eq i32 %55, 0
  br i1 %.not.i19, label %lean_dec.exit, label %60

60:                                               ; preds = %59
  tail call void @lean_dec_ref_cold(ptr noundef nonnull %2) #4
  br label %lean_dec.exit

lean_dec.exit:                                    ; preds = %60, %59, %57, %lean_dec.exit12
  ret ptr %19
}